; ModuleID = '64/2533.c'
source_filename = "64/2533.c"
target datalayout = "e-m:e-p270:32:32-p271:32:32-p272:64:64-i64:64-f80:128-n8:16:32:64-S128"
target triple = "x86_64-pc-linux-gnu"

@.str = private unnamed_addr constant [3 x i8] c"%d\00", align 1
@.str.1 = private unnamed_addr constant [7 x i8] c"%d%d%d\00", align 1
@.str.2 = private unnamed_addr constant [29 x i8] c"(%d,%d,%d)-(%d,%d,%d)=%.2lf\0A\00", align 1

; Function Attrs: noinline nounwind uwtable
define dso_local i32 @main() #0 {
  %1 = alloca i32, align 4
  %2 = alloca i32, align 4
  %3 = alloca [11 x i32], align 16
  %4 = alloca [11 x i32], align 16
  %5 = alloca [11 x i32], align 16
  %6 = alloca i32, align 4
  %7 = alloca i32, align 4
  %8 = alloca i32, align 4
  %9 = alloca i32, align 4
  %10 = alloca i32, align 4
  %11 = alloca i32, align 4
  %12 = alloca [90 x [90 x double]], align 16
  store i32 0, i32* %1, align 4
  store i32 0, i32* %10, align 4
  store i32 1, i32* %11, align 4
  %13 = call i32 (i8*, ...) @__isoc99_scanf(i8* getelementptr inbounds ([3 x i8], [3 x i8]* @.str, i64 0, i64 0), i32* %2)
  store i32 0, i32* %6, align 4
  br label %14

14:                                               ; preds = %29, %0
  %15 = load i32, i32* %6, align 4
  %16 = load i32, i32* %2, align 4
  %17 = icmp slt i32 %15, %16
  br i1 %17, label %18, label %32

18:                                               ; preds = %14
  %19 = load i32, i32* %6, align 4
  %20 = sext i32 %19 to i64
  %21 = getelementptr inbounds [11 x i32], [11 x i32]* %3, i64 0, i64 %20
  %22 = load i32, i32* %6, align 4
  %23 = sext i32 %22 to i64
  %24 = getelementptr inbounds [11 x i32], [11 x i32]* %4, i64 0, i64 %23
  %25 = load i32, i32* %6, align 4
  %26 = sext i32 %25 to i64
  %27 = getelementptr inbounds [11 x i32], [11 x i32]* %5, i64 0, i64 %26
  %28 = call i32 (i8*, ...) @__isoc99_scanf(i8* getelementptr inbounds ([7 x i8], [7 x i8]* @.str.1, i64 0, i64 0), i32* %21, i32* %24, i32* %27)
  br label %29

29:                                               ; preds = %18
  %30 = load i32, i32* %6, align 4
  %31 = add nsw i32 %30, 1
  store i32 %31, i32* %6, align 4
  br label %14

32:                                               ; preds = %14
  store i32 0, i32* %6, align 4
  br label %33

33:                                               ; preds = %119, %32
  %34 = load i32, i32* %6, align 4
  %35 = load i32, i32* %2, align 4
  %36 = sub nsw i32 %35, 1
  %37 = icmp slt i32 %34, %36
  br i1 %37, label %38, label %122

38:                                               ; preds = %33
  %39 = load i32, i32* %6, align 4
  %40 = add nsw i32 %39, 1
  store i32 %40, i32* %7, align 4
  br label %41

41:                                               ; preds = %115, %38
  %42 = load i32, i32* %7, align 4
  %43 = load i32, i32* %2, align 4
  %44 = icmp slt i32 %42, %43
  br i1 %44, label %45, label %118

45:                                               ; preds = %41
  %46 = load i32, i32* %6, align 4
  %47 = sext i32 %46 to i64
  %48 = getelementptr inbounds [11 x i32], [11 x i32]* %3, i64 0, i64 %47
  %49 = load i32, i32* %48, align 4
  %50 = load i32, i32* %7, align 4
  %51 = sext i32 %50 to i64
  %52 = getelementptr inbounds [11 x i32], [11 x i32]* %3, i64 0, i64 %51
  %53 = load i32, i32* %52, align 4
  %54 = sub nsw i32 %49, %53
  %55 = load i32, i32* %6, align 4
  %56 = sext i32 %55 to i64
  %57 = getelementptr inbounds [11 x i32], [11 x i32]* %3, i64 0, i64 %56
  %58 = load i32, i32* %57, align 4
  %59 = load i32, i32* %7, align 4
  %60 = sext i32 %59 to i64
  %61 = getelementptr inbounds [11 x i32], [11 x i32]* %3, i64 0, i64 %60
  %62 = load i32, i32* %61, align 4
  %63 = sub nsw i32 %58, %62
  %64 = mul nsw i32 %54, %63
  %65 = load i32, i32* %6, align 4
  %66 = sext i32 %65 to i64
  %67 = getelementptr inbounds [11 x i32], [11 x i32]* %4, i64 0, i64 %66
  %68 = load i32, i32* %67, align 4
  %69 = load i32, i32* %7, align 4
  %70 = sext i32 %69 to i64
  %71 = getelementptr inbounds [11 x i32], [11 x i32]* %4, i64 0, i64 %70
  %72 = load i32, i32* %71, align 4
  %73 = sub nsw i32 %68, %72
  %74 = load i32, i32* %6, align 4
  %75 = sext i32 %74 to i64
  %76 = getelementptr inbounds [11 x i32], [11 x i32]* %4, i64 0, i64 %75
  %77 = load i32, i32* %76, align 4
  %78 = load i32, i32* %7, align 4
  %79 = sext i32 %78 to i64
  %80 = getelementptr inbounds [11 x i32], [11 x i32]* %4, i64 0, i64 %79
  %81 = load i32, i32* %80, align 4
  %82 = sub nsw i32 %77, %81
  %83 = mul nsw i32 %73, %82
  %84 = add nsw i32 %64, %83
  %85 = load i32, i32* %6, align 4
  %86 = sext i32 %85 to i64
  %87 = getelementptr inbounds [11 x i32], [11 x i32]* %5, i64 0, i64 %86
  %88 = load i32, i32* %87, align 4
  %89 = load i32, i32* %7, align 4
  %90 = sext i32 %89 to i64
  %91 = getelementptr inbounds [11 x i32], [11 x i32]* %5, i64 0, i64 %90
  %92 = load i32, i32* %91, align 4
  %93 = sub nsw i32 %88, %92
  %94 = load i32, i32* %6, align 4
  %95 = sext i32 %94 to i64
  %96 = getelementptr inbounds [11 x i32], [11 x i32]* %5, i64 0, i64 %95
  %97 = load i32, i32* %96, align 4
  %98 = load i32, i32* %7, align 4
  %99 = sext i32 %98 to i64
  %100 = getelementptr inbounds [11 x i32], [11 x i32]* %5, i64 0, i64 %99
  %101 = load i32, i32* %100, align 4
  %102 = sub nsw i32 %97, %101
  %103 = mul nsw i32 %93, %102
  %104 = add nsw i32 %84, %103
  store i32 %104, i32* %8, align 4
  %105 = load i32, i32* %8, align 4
  %106 = sitofp i32 %105 to double
  %107 = fmul double 1.000000e+00, %106
  %108 = call double @sqrt(double %107) #3
  %109 = load i32, i32* %6, align 4
  %110 = sext i32 %109 to i64
  %111 = getelementptr inbounds [90 x [90 x double]], [90 x [90 x double]]* %12, i64 0, i64 %110
  %112 = load i32, i32* %7, align 4
  %113 = sext i32 %112 to i64
  %114 = getelementptr inbounds [90 x double], [90 x double]* %111, i64 0, i64 %113
  store double %108, double* %114, align 8
  br label %115

115:                                              ; preds = %45
  %116 = load i32, i32* %7, align 4
  %117 = add nsw i32 %116, 1
  store i32 %117, i32* %7, align 4
  br label %41

118:                                              ; preds = %41
  br label %119

119:                                              ; preds = %118
  %120 = load i32, i32* %6, align 4
  %121 = add nsw i32 %120, 1
  store i32 %121, i32* %6, align 4
  br label %33

122:                                              ; preds = %33
  store i32 0, i32* %9, align 4
  br label %123

123:                                              ; preds = %210, %122
  %124 = load i32, i32* %9, align 4
  %125 = load i32, i32* %2, align 4
  %126 = load i32, i32* %2, align 4
  %127 = sub nsw i32 %126, 1
  %128 = mul nsw i32 %125, %127
  %129 = sdiv i32 %128, 2
  %130 = icmp slt i32 %124, %129
  br i1 %130, label %131, label %213

131:                                              ; preds = %123
  store i32 0, i32* %6, align 4
  br label %132

132:                                              ; preds = %168, %131
  %133 = load i32, i32* %6, align 4
  %134 = load i32, i32* %2, align 4
  %135 = sub nsw i32 %134, 1
  %136 = icmp slt i32 %133, %135
  br i1 %136, label %137, label %171

137:                                              ; preds = %132
  %138 = load i32, i32* %6, align 4
  %139 = add nsw i32 %138, 1
  store i32 %139, i32* %7, align 4
  br label %140

140:                                              ; preds = %164, %137
  %141 = load i32, i32* %7, align 4
  %142 = load i32, i32* %2, align 4
  %143 = icmp slt i32 %141, %142
  br i1 %143, label %144, label %167

144:                                              ; preds = %140
  %145 = load i32, i32* %6, align 4
  %146 = sext i32 %145 to i64
  %147 = getelementptr inbounds [90 x [90 x double]], [90 x [90 x double]]* %12, i64 0, i64 %146
  %148 = load i32, i32* %7, align 4
  %149 = sext i32 %148 to i64
  %150 = getelementptr inbounds [90 x double], [90 x double]* %147, i64 0, i64 %149
  %151 = load double, double* %150, align 8
  %152 = load i32, i32* %10, align 4
  %153 = sext i32 %152 to i64
  %154 = getelementptr inbounds [90 x [90 x double]], [90 x [90 x double]]* %12, i64 0, i64 %153
  %155 = load i32, i32* %11, align 4
  %156 = sext i32 %155 to i64
  %157 = getelementptr inbounds [90 x double], [90 x double]* %154, i64 0, i64 %156
  %158 = load double, double* %157, align 8
  %159 = fcmp ogt double %151, %158
  br i1 %159, label %160, label %163

160:                                              ; preds = %144
  %161 = load i32, i32* %6, align 4
  store i32 %161, i32* %10, align 4
  %162 = load i32, i32* %7, align 4
  store i32 %162, i32* %11, align 4
  br label %163

163:                                              ; preds = %160, %144
  br label %164

164:                                              ; preds = %163
  %165 = load i32, i32* %7, align 4
  %166 = add nsw i32 %165, 1
  store i32 %166, i32* %7, align 4
  br label %140

167:                                              ; preds = %140
  br label %168

168:                                              ; preds = %167
  %169 = load i32, i32* %6, align 4
  %170 = add nsw i32 %169, 1
  store i32 %170, i32* %6, align 4
  br label %132

171:                                              ; preds = %132
  %172 = load i32, i32* %10, align 4
  %173 = sext i32 %172 to i64
  %174 = getelementptr inbounds [11 x i32], [11 x i32]* %3, i64 0, i64 %173
  %175 = load i32, i32* %174, align 4
  %176 = load i32, i32* %10, align 4
  %177 = sext i32 %176 to i64
  %178 = getelementptr inbounds [11 x i32], [11 x i32]* %4, i64 0, i64 %177
  %179 = load i32, i32* %178, align 4
  %180 = load i32, i32* %10, align 4
  %181 = sext i32 %180 to i64
  %182 = getelementptr inbounds [11 x i32], [11 x i32]* %5, i64 0, i64 %181
  %183 = load i32, i32* %182, align 4
  %184 = load i32, i32* %11, align 4
  %185 = sext i32 %184 to i64
  %186 = getelementptr inbounds [11 x i32], [11 x i32]* %3, i64 0, i64 %185
  %187 = load i32, i32* %186, align 4
  %188 = load i32, i32* %11, align 4
  %189 = sext i32 %188 to i64
  %190 = getelementptr inbounds [11 x i32], [11 x i32]* %4, i64 0, i64 %189
  %191 = load i32, i32* %190, align 4
  %192 = load i32, i32* %11, align 4
  %193 = sext i32 %192 to i64
  %194 = getelementptr inbounds [11 x i32], [11 x i32]* %5, i64 0, i64 %193
  %195 = load i32, i32* %194, align 4
  %196 = load i32, i32* %10, align 4
  %197 = sext i32 %196 to i64
  %198 = getelementptr inbounds [90 x [90 x double]], [90 x [90 x double]]* %12, i64 0, i64 %197
  %199 = load i32, i32* %11, align 4
  %200 = sext i32 %199 to i64
  %201 = getelementptr inbounds [90 x double], [90 x double]* %198, i64 0, i64 %200
  %202 = load double, double* %201, align 8
  %203 = call i32 (i8*, ...) @printf(i8* getelementptr inbounds ([29 x i8], [29 x i8]* @.str.2, i64 0, i64 0), i32 %175, i32 %179, i32 %183, i32 %187, i32 %191, i32 %195, double %202)
  %204 = load i32, i32* %10, align 4
  %205 = sext i32 %204 to i64
  %206 = getelementptr inbounds [90 x [90 x double]], [90 x [90 x double]]* %12, i64 0, i64 %205
  %207 = load i32, i32* %11, align 4
  %208 = sext i32 %207 to i64
  %209 = getelementptr inbounds [90 x double], [90 x double]* %206, i64 0, i64 %208
  store double 0.000000e+00, double* %209, align 8
  br label %210

210:                                              ; preds = %171
  %211 = load i32, i32* %9, align 4
  %212 = add nsw i32 %211, 1
  store i32 %212, i32* %9, align 4
  br label %123

213:                                              ; preds = %123
  ret i32 0
}

declare dso_local i32 @__isoc99_scanf(i8*, ...) #1

; Function Attrs: nounwind
declare dso_local double @sqrt(double) #2

declare dso_local i32 @printf(i8*, ...) #1


!llvm.module.flags = !{!0}
!llvm.ident = !{!1}

!0 = !{i32 1, !"wchar_size", i32 4}
!1 = !{!"clang version 10.0.0-4ubuntu1 "}
